; Function Attrs: mustprogress uwtable
define internal noundef ptr @"_ZNSt17_Function_handlerIFPN3nix5ValueEvEZNS0_16InstallableValue10getCursorsERNS0_9EvalStateEE3$_0E9_M_invokeERKSt9_Any_data"(ptr nocapture noundef nonnull readonly align 8 dereferenceable(16) %0) #4 align 2 {
  %.val = load ptr, ptr %0, align 8
  %2 = getelementptr inbounds i8, ptr %0, i64 8
  %.val1 = load ptr, ptr %2, align 8
  %3 = load ptr, ptr %.val, align 8
  %4 = getelementptr inbounds i8, ptr %3, i64 40
  %5 = load ptr, ptr %4, align 8
  %6 = tail call { ptr, i32 } %5(ptr noundef nonnull align 8 dereferenceable(24) %.val, ptr noundef nonnull align 8 dereferenceable(1248) %.val1)
  %7 = extractvalue { ptr, i32 } %6, 0
  ret ptr %7
}